; Function Attrs: nounwind uwtable
define internal noundef ptr @property_set_name(ptr noundef captures(none) %0, ptr noundef readonly captures(none) %1) #0 {
  %3 = getelementptr i8, ptr %1, i64 16
  %.val10 = load i64, ptr %3, align 8, !tbaa !36
  %.not = icmp eq i64 %.val10, 2
  br i1 %.not, label %7, label %4

4:                                                ; preds = %2
  %5 = load ptr, ptr @PyExc_TypeError, align 8, !tbaa !30
  %6 = tail call ptr (ptr, ptr, ...) @PyErr_Format(ptr noundef %5, ptr noundef nonnull @.str.73, i64 noundef %.val10) #9
  br label %Py_XDECREF.exit

7:                                                ; preds = %2
  %8 = getelementptr i8, ptr %1, i64 32
  %9 = load ptr, ptr %8, align 8, !tbaa !30
  %10 = getelementptr inbounds nuw i8, ptr %0, i64 48
  %11 = load ptr, ptr %10, align 8, !tbaa !30
  %.not.i.i = icmp eq ptr %9, null
  br i1 %.not.i.i, label %_Py_XNewRef.exit, label %12

12:                                               ; preds = %7
  %13 = load i32, ptr %9, align 8, !tbaa !16
  %14 = icmp slt i32 %13, 0
  br i1 %14, label %_Py_XNewRef.exit, label %15

15:                                               ; preds = %12
  %16 = add nuw i32 %13, 1
  store i32 %16, ptr %9, align 8, !tbaa !16
  br label %_Py_XNewRef.exit

_Py_XNewRef.exit:                                 ; preds = %7, %12, %15
  store ptr %9, ptr %10, align 8, !tbaa !30
  %.not.i = icmp eq ptr %11, null
  br i1 %.not.i, label %Py_XDECREF.exit, label %17

17:                                               ; preds = %_Py_XNewRef.exit
  %18 = load i32, ptr %11, align 8, !tbaa !16
  %.not.i.i11 = icmp sgt i32 %18, -1
  br i1 %.not.i.i11, label %19, label %Py_XDECREF.exit

19:                                               ; preds = %17
  %20 = add nsw i32 %18, -1
  store i32 %20, ptr %11, align 8, !tbaa !16
  %21 = icmp eq i32 %20, 0
  br i1 %21, label %22, label %Py_XDECREF.exit

22:                                               ; preds = %19
  tail call void @_Py_Dealloc(ptr noundef nonnull %11) #9
  br label %Py_XDECREF.exit

Py_XDECREF.exit:                                  ; preds = %22, %19, %17, %_Py_XNewRef.exit, %4
  %.0 = phi ptr [ null, %4 ], [ @_Py_NoneStruct, %_Py_XNewRef.exit ], [ @_Py_NoneStruct, %17 ], [ @_Py_NoneStruct, %19 ], [ @_Py_NoneStruct, %22 ]
  ret ptr %.0
}